target datalayout = "e-m:e-p270:32:32-p271:32:32-p272:64:64-i64:64-i128:128-f80:128-n8:16:32:64-S128"
target triple = "x86_64-pc-linux-gnu"

%struct.rb_iseq_struct = type { i64, i64, ptr, %union.anon.13 }
%union.anon.13 = type { %struct.anon.14 }
%struct.anon.14 = type { i64, i32 }

@COMPILE_OPTION_DEFAULT = internal global { i8, i8, [2 x i8], i32 } { i8 -37, i8 2, [2 x i8] zeroinitializer, i32 0 }, align 4

; Function Attrs: nounwind sspstrong uwtable
define dso_local ptr @rb_iseq_constant_body_alloc() #0 {
  %1 = alloca ptr, align 8
  call void @llvm.lifetime.start.p0(i64 8, ptr %1) #24
  %2 = call noalias nonnull ptr @ruby_xcalloc(i64 noundef 1, i64 noundef 344) #27
  store ptr %2, ptr %1, align 8, !tbaa !16
  %3 = load ptr, ptr %1, align 8, !tbaa !16
  call void @llvm.lifetime.end.p0(i64 8, ptr %1) #24
  ret ptr %3
}

; Function Attrs: inlinehint nounwind sspstrong uwtable
define internal ptr @iseq_imemo_alloc() #5 {
  %1 = call i64 @rb_imemo_new(i32 noundef 7, i64 noundef 0, i64 noundef 40)
  %2 = inttoptr i64 %1 to ptr
  ret ptr %2
}

; Function Attrs: nounwind sspstrong uwtable
define internal ptr @iseq_alloc() #0 {
  %1 = alloca ptr, align 8
  call void @llvm.lifetime.start.p0(i64 8, ptr %1) #24
  %2 = call ptr @iseq_imemo_alloc()
  store ptr %2, ptr %1, align 8, !tbaa !7
  %3 = call ptr @rb_iseq_constant_body_alloc()
  %4 = load ptr, ptr %1, align 8, !tbaa !7
  %5 = getelementptr inbounds nuw %struct.rb_iseq_struct, ptr %4, i32 0, i32 2
  store ptr %3, ptr %5, align 8, !tbaa !12
  %6 = load ptr, ptr %1, align 8, !tbaa !7
  call void @llvm.lifetime.end.p0(i64 8, ptr %1) #24
  ret ptr %6
}

; Function Attrs: nounwind sspstrong uwtable
define dso_local ptr @rb_iseq_new_with_callback(ptr noundef %0, i64 noundef %1, i64 noundef %2, i64 noundef %3, i32 noundef %4, ptr noundef %5, i32 noundef %6, ptr noundef %7) #0 {
  %9 = alloca ptr, align 8
  %10 = alloca i64, align 8
  %11 = alloca i64, align 8
  %12 = alloca i64, align 8
  %13 = alloca i32, align 4
  %14 = alloca ptr, align 8
  %15 = alloca i32, align 4
  %16 = alloca ptr, align 8
  %17 = alloca ptr, align 8
  store ptr %0, ptr %9, align 8, !tbaa !254
  store i64 %1, ptr %10, align 8, !tbaa !17
  store i64 %2, ptr %11, align 8, !tbaa !17
  store i64 %3, ptr %12, align 8, !tbaa !17
  store i32 %4, ptr %13, align 4, !tbaa !56
  store ptr %5, ptr %14, align 8, !tbaa !7
  store i32 %6, ptr %15, align 4, !tbaa !56
  store ptr %7, ptr %16, align 8, !tbaa !160
  call void @llvm.lifetime.start.p0(i64 8, ptr %17) #24
  %18 = call ptr @iseq_alloc()
  store ptr %18, ptr %17, align 8, !tbaa !7
  %19 = load ptr, ptr %16, align 8, !tbaa !160
  %20 = icmp ne ptr %19, null
  br i1 %20, label %22, label %21

21:                                               ; preds = %8
  store ptr @COMPILE_OPTION_DEFAULT, ptr %16, align 8, !tbaa !160
  br label %22

22:                                               ; preds = %21, %8
  %23 = load ptr, ptr %17, align 8, !tbaa !7
  %24 = load i64, ptr %10, align 8, !tbaa !17
  %25 = load i64, ptr %11, align 8, !tbaa !17
  %26 = load i64, ptr %12, align 8, !tbaa !17
  %27 = load i32, ptr %13, align 4, !tbaa !56
  %28 = load ptr, ptr %14, align 8, !tbaa !7
  %29 = load i32, ptr %15, align 4, !tbaa !56
  %30 = load ptr, ptr %16, align 8, !tbaa !160
  %31 = call i64 @prepare_iseq_build(ptr noundef %23, i64 noundef %24, i64 noundef %25, i64 noundef %26, i32 noundef %27, ptr noundef null, i32 noundef -1, ptr noundef %28, i32 noundef 0, i32 noundef %29, i64 noundef 4, ptr noundef %30)
  %32 = load ptr, ptr %17, align 8, !tbaa !7
  %33 = load ptr, ptr %9, align 8, !tbaa !254
  %34 = call i64 @rb_iseq_compile_callback(ptr noundef %32, ptr noundef %33)
  %35 = load ptr, ptr %17, align 8, !tbaa !7
  %36 = call i64 @finish_iseq_build(ptr noundef %35)
  %37 = load ptr, ptr %17, align 8, !tbaa !7
  call void @llvm.lifetime.end.p0(i64 8, ptr %17) #24
  ret ptr %37
}