; Function Attrs: nounwind sspstrong uwtable
define dso_local ptr @rb_iseq_new_with_callback(ptr noundef %0, i64 noundef %1, i64 noundef %2, i64 noundef %3, i32 noundef %4, ptr noundef %5, i32 noundef %6, ptr noundef %7) local_unnamed_addr #0 {
  %9 = tail call i64 @rb_imemo_new(i32 noundef 7, i64 noundef 0, i64 noundef 40) #20
  %10 = inttoptr i64 %9 to ptr
  %11 = tail call noalias noundef nonnull dereferenceable(344) ptr @ruby_xcalloc(i64 noundef 1, i64 noundef 344) #22
  %12 = getelementptr inbounds nuw i8, ptr %10, i64 16
  store ptr %11, ptr %12, align 8, !tbaa !7
  %.not = icmp eq ptr %7, null
  %spec.store.select = select i1 %.not, ptr @COMPILE_OPTION_DEFAULT, ptr %7
  tail call fastcc void @prepare_iseq_build(ptr noundef %10, i64 noundef %1, i64 noundef %2, i64 noundef %3, i32 noundef %4, ptr noundef null, i32 noundef -1, ptr noundef %5, i32 noundef 0, i32 noundef %6, i64 noundef 4, ptr noundef nonnull %spec.store.select)
  %13 = tail call i64 @rb_iseq_compile_callback(ptr noundef %10, ptr noundef %0) #20
  tail call fastcc void @finish_iseq_build(ptr noundef %10)
  ret ptr %10
}